target datalayout = "e-m:e-p270:32:32-p271:32:32-p272:64:64-i64:64-i128:128-f80:128-n8:16:32:64-S128"
target triple = "x86_64-pc-linux-gnu"

%struct.DdManager = type { %struct.DdNode, ptr, ptr, ptr, ptr, ptr, ptr, ptr, i32, i32, double, double, double, i32, i32, i32, i32, i32, i32, ptr, ptr, %struct.DdSubtable, i32, i32, i32, i32, i32, i32, i32, double, i32, i32, i32, ptr, i64, double, i32, ptr, ptr, ptr, ptr, ptr, ptr, ptr, i32, ptr, ptr, ptr, ptr, ptr, ptr, i32, i32, i32, double, i32, i32, i32, i32, double, double, i32, i32, i32, i32, i32, i32, i32, i32, i32, ptr, ptr, i32, i32, i32, i32, i32, i32, ptr, ptr, ptr, ptr, ptr, ptr, ptr, ptr, i32, i64, i64, i64, i32, i64, i64, double, double, double, double, double, double, i32, ptr, ptr, i64 }
%struct.DdNode = type { i32, i32, ptr, %union.anon, i64 }
%union.anon = type { %struct.DdChildren }
%struct.DdChildren = type { ptr, ptr }
%struct.DdSubtable = type { ptr, i32, i32, i32, i32, i32, i32, i32, i32, i32, i32, i32 }

; Function Attrs: nounwind uwtable
define ptr @Extra_VectorSupportArray(ptr noundef %0, ptr noundef %1, i32 noundef %2, ptr noundef %3) #0 {
  %5 = alloca ptr, align 8
  %6 = alloca ptr, align 8
  %7 = alloca i32, align 4
  %8 = alloca ptr, align 8
  %9 = alloca i32, align 4
  %10 = alloca i32, align 4
  store ptr %0, ptr %5, align 8, !tbaa !3
  store ptr %1, ptr %6, align 8, !tbaa !56
  store i32 %2, ptr %7, align 4, !tbaa !37
  store ptr %3, ptr %8, align 8, !tbaa !10
  call void @llvm.lifetime.start.p0(i64 4, ptr %9) #10
  call void @llvm.lifetime.start.p0(i64 4, ptr %10) #10
  %11 = load ptr, ptr %5, align 8, !tbaa !3
  %12 = getelementptr inbounds nuw %struct.DdManager, ptr %11, i32 0, i32 16
  %13 = load i32, ptr %12, align 4, !tbaa !58
  %14 = load ptr, ptr %5, align 8, !tbaa !3
  %15 = getelementptr inbounds nuw %struct.DdManager, ptr %14, i32 0, i32 15
  %16 = load i32, ptr %15, align 8, !tbaa !36
  %17 = icmp sgt i32 %13, %16
  br i1 %17, label %18, label %22

18:                                               ; preds = %4
  %19 = load ptr, ptr %5, align 8, !tbaa !3
  %20 = getelementptr inbounds nuw %struct.DdManager, ptr %19, i32 0, i32 16
  %21 = load i32, ptr %20, align 4, !tbaa !58
  br label %26

22:                                               ; preds = %4
  %23 = load ptr, ptr %5, align 8, !tbaa !3
  %24 = getelementptr inbounds nuw %struct.DdManager, ptr %23, i32 0, i32 15
  %25 = load i32, ptr %24, align 8, !tbaa !36
  br label %26

26:                                               ; preds = %22, %18
  %27 = phi i32 [ %21, %18 ], [ %25, %22 ]
  store i32 %27, ptr %10, align 4, !tbaa !37
  store i32 0, ptr %9, align 4, !tbaa !37
  br label %28

28:                                               ; preds = %37, %26
  %29 = load i32, ptr %9, align 4, !tbaa !37
  %30 = load i32, ptr %10, align 4, !tbaa !37
  %31 = icmp slt i32 %29, %30
  br i1 %31, label %32, label %40

32:                                               ; preds = %28
  %33 = load ptr, ptr %8, align 8, !tbaa !10
  %34 = load i32, ptr %9, align 4, !tbaa !37
  %35 = sext i32 %34 to i64
  %36 = getelementptr inbounds i32, ptr %33, i64 %35
  store i32 0, ptr %36, align 4, !tbaa !37
  br label %37

37:                                               ; preds = %32
  %38 = load i32, ptr %9, align 4, !tbaa !37
  %39 = add nsw i32 %38, 1
  store i32 %39, ptr %9, align 4, !tbaa !37
  br label %28, !llvm.loop !61

40:                                               ; preds = %28
  store i32 0, ptr %9, align 4, !tbaa !37
  br label %41

41:                                               ; preds = %55, %40
  %42 = load i32, ptr %9, align 4, !tbaa !37
  %43 = load i32, ptr %7, align 4, !tbaa !37
  %44 = icmp slt i32 %42, %43
  br i1 %44, label %45, label %58

45:                                               ; preds = %41
  %46 = load ptr, ptr %6, align 8, !tbaa !56
  %47 = load i32, ptr %9, align 4, !tbaa !37
  %48 = sext i32 %47 to i64
  %49 = getelementptr inbounds ptr, ptr %46, i64 %48
  %50 = load ptr, ptr %49, align 8, !tbaa !8
  %51 = ptrtoint ptr %50 to i64
  %52 = and i64 %51, -2
  %53 = inttoptr i64 %52 to ptr
  %54 = load ptr, ptr %8, align 8, !tbaa !10
  call void @ddSupportStep2(ptr noundef %53, ptr noundef %54)
  br label %55

55:                                               ; preds = %45
  %56 = load i32, ptr %9, align 4, !tbaa !37
  %57 = add nsw i32 %56, 1
  store i32 %57, ptr %9, align 4, !tbaa !37
  br label %41, !llvm.loop !62

58:                                               ; preds = %41
  store i32 0, ptr %9, align 4, !tbaa !37
  br label %59

59:                                               ; preds = %72, %58
  %60 = load i32, ptr %9, align 4, !tbaa !37
  %61 = load i32, ptr %7, align 4, !tbaa !37
  %62 = icmp slt i32 %60, %61
  br i1 %62, label %63, label %75

63:                                               ; preds = %59
  %64 = load ptr, ptr %6, align 8, !tbaa !56
  %65 = load i32, ptr %9, align 4, !tbaa !37
  %66 = sext i32 %65 to i64
  %67 = getelementptr inbounds ptr, ptr %64, i64 %66
  %68 = load ptr, ptr %67, align 8, !tbaa !8
  %69 = ptrtoint ptr %68 to i64
  %70 = and i64 %69, -2
  %71 = inttoptr i64 %70 to ptr
  call void @ddClearFlag2(ptr noundef %71)
  br label %72

72:                                               ; preds = %63
  %73 = load i32, ptr %9, align 4, !tbaa !37
  %74 = add nsw i32 %73, 1
  store i32 %74, ptr %9, align 4, !tbaa !37
  br label %59, !llvm.loop !63

75:                                               ; preds = %59
  %76 = load ptr, ptr %8, align 8, !tbaa !10
  call void @llvm.lifetime.end.p0(i64 4, ptr %10) #10
  call void @llvm.lifetime.end.p0(i64 4, ptr %9) #10
  ret ptr %76
}