; Function Attrs: nofree nosync nounwind memory(readwrite, inaccessiblemem: none) uwtable
define noundef ptr @Extra_VectorSupportArray(ptr noundef readonly captures(none) %0, ptr noundef readonly captures(none) %1, i32 noundef %2, ptr noundef returned %3) local_unnamed_addr #8 {
  %5 = getelementptr inbounds nuw i8, ptr %0, i64 140
  %6 = load i32, ptr %5, align 4, !tbaa !49
  %7 = getelementptr inbounds nuw i8, ptr %0, i64 136
  %8 = load i32, ptr %7, align 8, !tbaa !29
  %. = tail call i32 @llvm.smax.i32(i32 %6, i32 %8)
  %9 = icmp sgt i32 %., 0
  br i1 %9, label %.lr.ph.preheader, label %.preheader23

.lr.ph.preheader:                                 ; preds = %4
  %10 = zext nneg i32 %. to i64
  %11 = shl nuw nsw i64 %10, 2
  tail call void @llvm.memset.p0.i64(ptr align 4 %3, i8 0, i64 %11, i1 false), !tbaa !31
  br label %.preheader23

.preheader23:                                     ; preds = %.lr.ph.preheader, %4
  %12 = icmp sgt i32 %2, 0
  br i1 %12, label %.lr.ph26.preheader, label %._crit_edge

.lr.ph26.preheader:                               ; preds = %.preheader23
  %wide.trip.count = zext nneg i32 %2 to i64
  br label %.lr.ph26

.lr.ph28.preheader:                               ; preds = %.lr.ph26
  %wide.trip.count34 = zext nneg i32 %2 to i64
  br label %.lr.ph28

.lr.ph26:                                         ; preds = %.lr.ph26.preheader, %.lr.ph26
  %indvars.iv = phi i64 [ 0, %.lr.ph26.preheader ], [ %indvars.iv.next, %.lr.ph26 ]
  %13 = getelementptr inbounds nuw ptr, ptr %1, i64 %indvars.iv
  %14 = load ptr, ptr %13, align 8, !tbaa !25
  %15 = ptrtoint ptr %14 to i64
  %16 = and i64 %15, -2
  %17 = inttoptr i64 %16 to ptr
  tail call void @ddSupportStep2(ptr noundef %17, ptr noundef %3)
  %indvars.iv.next = add nuw nsw i64 %indvars.iv, 1
  %exitcond.not = icmp eq i64 %indvars.iv.next, %wide.trip.count
  br i1 %exitcond.not, label %.lr.ph28.preheader, label %.lr.ph26, !llvm.loop !51

.lr.ph28:                                         ; preds = %.lr.ph28.preheader, %.lr.ph28
  %indvars.iv31 = phi i64 [ 0, %.lr.ph28.preheader ], [ %indvars.iv.next32, %.lr.ph28 ]
  %18 = getelementptr inbounds nuw ptr, ptr %1, i64 %indvars.iv31
  %19 = load ptr, ptr %18, align 8, !tbaa !25
  %20 = ptrtoint ptr %19 to i64
  %21 = and i64 %20, -2
  %22 = inttoptr i64 %21 to ptr
  tail call void @ddClearFlag2(ptr noundef %22)
  %indvars.iv.next32 = add nuw nsw i64 %indvars.iv31, 1
  %exitcond35.not = icmp eq i64 %indvars.iv.next32, %wide.trip.count34
  br i1 %exitcond35.not, label %._crit_edge, label %.lr.ph28, !llvm.loop !52

._crit_edge:                                      ; preds = %.lr.ph28, %.preheader23
  ret ptr %3
}